; Function Attrs: mustprogress uwtable
define void @_ZN7clint_tC2EPK7simif_tmb(ptr noundef nonnull align 8 dereferenceable(104) %0, ptr noundef %1, i64 noundef %2, i1 noundef zeroext %3) unnamed_addr #3 align 2 personality ptr @__gxx_personality_v0 {
  %5 = alloca %struct.timeval, align 16
  %6 = zext i1 %3 to i8
  store ptr getelementptr inbounds ({ [7 x ptr] }, ptr @_ZTV7clint_t, i64 0, i32 0, i64 2), ptr %0, align 8
  %7 = getelementptr inbounds i8, ptr %0, i64 8
  store ptr %1, ptr %7, align 8
  %8 = getelementptr inbounds i8, ptr %0, i64 16
  store i64 %2, ptr %8, align 8
  %9 = getelementptr inbounds i8, ptr %0, i64 24
  store i8 %6, ptr %9, align 8
  %10 = getelementptr inbounds i8, ptr %0, i64 48
  store i64 0, ptr %10, align 8
  %11 = getelementptr inbounds i8, ptr %0, i64 64
  store i32 0, ptr %11, align 8
  %12 = getelementptr inbounds i8, ptr %0, i64 72
  store ptr null, ptr %12, align 8
  %13 = getelementptr inbounds i8, ptr %0, i64 80
  store ptr %11, ptr %13, align 8
  %14 = getelementptr inbounds i8, ptr %0, i64 88
  store ptr %11, ptr %14, align 8
  %15 = getelementptr inbounds i8, ptr %0, i64 96
  store i64 0, ptr %15, align 8
  %16 = call i32 @gettimeofday(ptr noundef nonnull %5, ptr noundef null) #18
  %17 = getelementptr inbounds i8, ptr %0, i64 32
  %18 = load <2 x i64>, ptr %5, align 16
  store <2 x i64> %18, ptr %17, align 8
  %19 = load ptr, ptr %0, align 8
  %20 = getelementptr inbounds i8, ptr %19, i64 32
  %21 = load ptr, ptr %20, align 8
  invoke void %21(ptr noundef nonnull align 8 dereferenceable(104) %0, i64 noundef 0)
          to label %22 unwind label %23

22:                                               ; preds = %4
  ret void

23:                                               ; preds = %4
  %24 = landingpad { ptr, i32 }
          cleanup
  %25 = getelementptr inbounds i8, ptr %0, i64 56
  tail call void @_ZNSt3mapImmSt4lessImESaISt4pairIKmmEEED2Ev(ptr noundef nonnull align 8 dereferenceable(48) %25) #18
  resume { ptr, i32 } %24
}